Certificate:
    Data:
        Version: 3 (0x2)
        Serial Number: 3 (0x3)
    Signature Algorithm: ecdsa-with-SHA256
        Issuer: C=US, O=Honest Achmed's, CN=Honest Achmed's Test Intermediate CA
        Validity
            Not Before: May 10 00:00:00 2017 GMT
            Not After : May 18 00:10:36 2018 GMT
        Subject: C=US, O=Test Example, CN=example.com
        Subject Public Key Info:
            Public Key Algorithm: id-ecPublicKey
                Public-Key: (256 bit)
                pub: 
                    04:d3:a0:5c:b8:bc:35:49:08:08:1c:3f:4b:ad:ae:
                    dc:21:83:aa:5f:3b:01:51:93:43:64:13:cd:a8:52:
                    82:71:50:f1:04:df:4e:cc:4e:3a:f2:91:21:c6:25:
                    b0:30:7c:ac:5e:ea:92:84:0b:6a:62:32:de:d1:03:
                    cd:2c:3e:cb:37
                ASN1 OID: prime256v1
        X509v3 extensions:
            X509v3 Subject Key Identifier: 
                47:BE:3F:A3:10:24:E7:F3:E4:81:48:A7:01:8D:45:43:64:B2:1D:35
            X509v3 Authority Key Identifier: 
                keyid:AD:7F:9A:6C:C1:8B:98:72:A6:B2:AE:2B:AE:41:84:4C:33:A3:EA:AC
                DirName:/C=US/O=Honest Achmed's/CN=Honest Achmed's Test Root CA
                serial:02

            X509v3 Basic Constraints: critical
                CA:FALSE
            X509v3 Key Usage: critical
                Digital Signature, Key Encipherment
            X509v3 Extended Key Usage: 
                TLS Web Server Authentication
    Signature Algorithm: ecdsa-with-SHA256
         30:81:87:02:42:01:e2:43:90:e1:be:06:49:12:ff:71:2b:0b:
         56:87:e4:4a:86:5e:d9:1d:9a:1d:bf:82:7e:17:9f:8e:c8:d7:
         ba:3e:0f:42:d6:a9:3b:1b:89:e6:b3:c5:0f:a6:e4:d0:7f:bb:
         17:45:33:c4:11:73:0c:08:c9:10:f0:08:07:28:c4:e8:95:02:
         41:7e:f1:30:5a:ce:2f:20:ba:1a:9a:c8:3a:a8:78:dc:4d:5a:
         25:71:8d:5e:53:8c:ad:11:0d:b3:af:a3:17:31:b4:61:b7:21:
         af:e1:cd:64:21:04:62:f0:de:ce:82:07:3c:57:8e:35:fe:1e:
         45:ed:e3:d4:81:d3:41:4f:b2:37:7d:7f
-----BEGIN CERTIFICATE-----
MIICkTCCAfOgAwIBAgIBAzAKBggqhkjOPQQDAjBWMQswCQYDVQQGEwJVUzEYMBYG
A1UECgwPSG9uZXN0IEFjaG1lZCdzMS0wKwYDVQQDDCRIb25lc3QgQWNobWVkJ3Mg
VGVzdCBJbnRlcm1lZGlhdGUgQ0EwHhcNMTcwNTEwMDAwMDAwWhcNMTgwNTE4MDAx
MDM2WjA6MQswCQYDVQQGEwJVUzEVMBMGA1UECgwMVGVzdCBFeGFtcGxlMRQwEgYD
VQQDDAtleGFtcGxlLmNvbTBZMBMGByqGSM49AgEGCCqGSM49AwEHA0IABNOgXLi8
NUkICBw/S62u3CGDql87AVGTQ2QTzahSgnFQ8QTfTsxOOvKRIcYlsDB8rF7qkoQL
amIy3tEDzSw+yzejgc0wgcowHQYDVR0OBBYEFEe+P6MQJOfz5IFIpwGNRUNksh01
MHYGA1UdIwRvMG2AFK1/mmzBi5hyprKuK65BhEwzo+qsoVKkUDBOMQswCQYDVQQG
EwJVUzEYMBYGA1UECgwPSG9uZXN0IEFjaG1lZCdzMSUwIwYDVQQDDBxIb25lc3Qg
QWNobWVkJ3MgVGVzdCBSb290IENBggECMAwGA1UdEwEB/wQCMAAwDgYDVR0PAQH/
BAQDAgWgMBMGA1UdJQQMMAoGCCsGAQUFBwMBMAoGCCqGSM49BAMCA4GLADCBhwJC
AeJDkOG+BkkS/3ErC1aH5EqGXtkdmh2/gn4Xn47I17o+D0LWqTsbieazxQ+m5NB/
uxdFM8QRcwwIyRDwCAcoxOiVAkF+8TBazi8guhqayDqoeNxNWiVxjV5TjK0RDbOv
oxcxtGG3Ia/hzWQhBGLw3s6CBzxXjjX+HkXt49SB00FPsjd9fw==
-----END CERTIFICATE-----
