Certificate:
    Data:
        Version: 3 (0x2)
        Serial Number: 2 (0x2)
    Signature Algorithm: sha256WithRSAEncryption
        Issuer: C=US, O=Honest Achmed's, CN=Honest Achmed's Test Root CA
        Validity
            Not Before: May 10 00:00:00 2017 GMT
            Not After : May 18 00:10:36 2018 GMT
        Subject: C=US, O=Honest Achmed's, CN=Honest Achmed's Test Intermediate CA
        Subject Public Key Info:
            Public Key Algorithm: id-ecPublicKey
                Public-Key: (521 bit)
                pub: 
                    04:01:ec:d4:86:d2:3b:61:c2:c2:75:e5:5c:34:12:
                    df:a3:0f:80:80:f1:2a:6a:f0:bb:98:02:59:5c:5b:
                    75:29:b4:4a:ce:3c:64:f5:75:ac:64:da:f8:a0:1d:
                    46:70:f6:e7:06:6a:c7:ab:de:39:16:ce:1d:2d:8a:
                    44:23:4a:1d:bc:ec:41:00:22:23:be:51:8c:a0:91:
                    68:db:15:45:64:93:9f:10:b9:46:29:46:3e:f7:5e:
                    4c:ba:19:61:70:ce:88:94:75:a3:13:5a:da:98:34:
                    fd:54:cf:ad:9d:af:63:16:38:14:ac:b7:2b:86:40:
                    70:f6:c0:21:49:7c:3c:e9:b5:38:58:2e:2a
                ASN1 OID: secp521r1
        X509v3 extensions:
            X509v3 Subject Key Identifier: 
                AD:7F:9A:6C:C1:8B:98:72:A6:B2:AE:2B:AE:41:84:4C:33:A3:EA:AC
            X509v3 Authority Key Identifier: 
                keyid:1C:05:A7:CA:E9:34:C6:82:6F:2C:6F:C6:C2:BF:9D:67:59:BC:5F:91

            X509v3 Basic Constraints: critical
                CA:TRUE, pathlen:0
            X509v3 Key Usage: critical
                Digital Signature, Certificate Sign, CRL Sign
    Signature Algorithm: sha256WithRSAEncryption
         30:02:4f:c1:56:c5:84:02:99:4d:77:04:e8:ef:5e:9d:2f:1e:
         b6:e8:74:6a:96:e3:93:d6:a4:92:0d:07:ae:7b:8f:0e:11:d9:
         45:e1:40:4e:f6:ac:eb:24:7e:98:9a:5b:d1:dd:52:ad:5b:a3:
         65:f0:9f:92:34:43:46:ce:d4:f6:c2:62:93:1c:ae:97:da:4e:
         d9:e6:c3:06:8f:26:6e:36:a2:37:85:75:bd:15:14:1b:0b:d9:
         e7:a7:b4:a8:1d:89:c6:d1:95:25:f0:0b:da:53:ba:4a:24:9d:
         20:d4:1b:7b:91:0c:b4:7f:35:e7:08:a9:18:50:7b:65:14:68:
         a8:58:ee:5f:97:53:13:97:01:ec:a3:e3:51:05:74:6d:31:34:
         f3:ff:93:15:e4:9c:3f:e9:f3:e4:c3:2c:43:60:a8:55:46:b1:
         b3:61:8b:28:33:9f:35:12:4f:14:38:9f:dc:ef:2a:28:78:f9:
         97:e5:ad:e3:34:a4:96:e6:8f:99:b6:27:8d:c7:28:0d:21:5d:
         f1:18:ba:5e:ec:2b:61:79:47:bf:55:85:f0:46:91:7f:23:83:
         11:ee:b0:db:ab:6c:ae:53:c4:85:c0:96:9e:a4:ce:0d:09:76:
         2c:17:7a:b6:b8:8d:17:89:bf:27:6c:28:3f:42:a6:ff:de:ab:
         23:0d:48:06:a3:39:e6:66:21:59:7a:11:55:6e:98:b6:83:e7:
         99:88:10:fa:63:02:38:08:f8:bf:ac:55:12:46:31:7a:64:68:
         fd:4a:f2:6e:49:a5:27:15:f0:8e:01:7d:3a:67:98:9f:e7:e4:
         1c:99:4c:8c:fc:f6:7c:85:f4:dc:27:fe:44:5c:b9:42:66:b2:
         be:b9:3c:df:d8:fe:95:4c:be:66:bf:5d:52:46:87:1a:cd:cc:
         a8:05:5b:65:7a:84:ae:59:b4:b4:27:f2:cb:bb:08:e1:b9:a3:
         e2:26:15:90:a9:a1:8f:ae:33:f3:4b:29:ea:12:e6:ad:38:bd:
         a5:5d:cd:71:ce:3d:87:bb:83:3f:86:42:d6:8f:aa:50:ae:fb:
         5b:74:7b:a7:1d:76:18:69:9a:d5:d3:2f:d4:6f:b6:97:71:67:
         ec:7a:7b:64:7e:83:cb:5e:0d:05:9c:b7:9b:d4:65:8e:b0:ec:
         f6:d2:3a:d8:c8:81:c8:2b:3e:b7:39:14:13:42:26:0b:0f:15:
         ce:1f:f3:60:a4:1e:83:8b:a3:0d:05:96:9e:10:41:d6:39:0c:
         0b:4d:86:ed:5a:b3:d2:97:74:7e:eb:34:e0:2e:a6:e3:f8:a1:
         54:23:ce:dc:40:f7:e4:a5:11:c1:ac:a4:49:b2:5b:8b:17:68:
         5c:32:43:42:2a:14:26:f7
-----BEGIN CERTIFICATE-----
MIID/TCCAeWgAwIBAgIBAjANBgkqhkiG9w0BAQsFADBOMQswCQYDVQQGEwJVUzEY
MBYGA1UECgwPSG9uZXN0IEFjaG1lZCdzMSUwIwYDVQQDDBxIb25lc3QgQWNobWVk
J3MgVGVzdCBSb290IENBMB4XDTE3MDUxMDAwMDAwMFoXDTE4MDUxODAwMTAzNlow
VjELMAkGA1UEBhMCVVMxGDAWBgNVBAoMD0hvbmVzdCBBY2htZWQnczEtMCsGA1UE
AwwkSG9uZXN0IEFjaG1lZCdzIFRlc3QgSW50ZXJtZWRpYXRlIENBMIGbMBAGByqG
SM49AgEGBSuBBAAjA4GGAAQB7NSG0jthwsJ15Vw0Et+jD4CA8Spq8LuYAllcW3Up
tErOPGT1daxk2vigHUZw9ucGaser3jkWzh0tikQjSh287EEAIiO+UYygkWjbFUVk
k58QuUYpRj73Xky6GWFwzoiUdaMTWtqYNP1Uz62dr2MWOBSstyuGQHD2wCFJfDzp
tThYLiqjZjBkMB0GA1UdDgQWBBStf5pswYuYcqayriuuQYRMM6PqrDAfBgNVHSME
GDAWgBQcBafK6TTGgm8sb8bCv51nWbxfkTASBgNVHRMBAf8ECDAGAQH/AgEAMA4G
A1UdDwEB/wQEAwIBhjANBgkqhkiG9w0BAQsFAAOCAgEAMAJPwVbFhAKZTXcE6O9e
nS8etuh0apbjk9akkg0HrnuPDhHZReFATvas6yR+mJpb0d1SrVujZfCfkjRDRs7U
9sJikxyul9pO2ebDBo8mbjaiN4V1vRUUGwvZ56e0qB2JxtGVJfAL2lO6SiSdINQb
e5EMtH815wipGFB7ZRRoqFjuX5dTE5cB7KPjUQV0bTE08/+TFeScP+nz5MMsQ2Co
VUaxs2GLKDOfNRJPFDif3O8qKHj5l+Wt4zSkluaPmbYnjccoDSFd8Ri6XuwrYXlH
v1WF8EaRfyODEe6w26tsrlPEhcCWnqTODQl2LBd6triNF4m/J2woP0Km/96rIw1I
BqM55mYhWXoRVW6YtoPnmYgQ+mMCOAj4v6xVEkYxemRo/UrybkmlJxXwjgF9OmeY
n+fkHJlMjPz2fIX03Cf+RFy5Qmayvrk839j+lUy+Zr9dUkaHGs3MqAVbZXqErlm0
tCfyy7sI4bmj4iYVkKmhj64z80sp6hLmrTi9pV3Ncc49h7uDP4ZC1o+qUK77W3R7
px12GGma1dMv1G+2l3Fn7Hp7ZH6Dy14NBZy3m9RljrDs9tI62MiByCs+tzkUE0Im
Cw8Vzh/zYKQeg4ujDQWWnhBB1jkMC02G7Vqz0pd0fus04C6m4/ihVCPO3ED35KUR
waykSbJbixdoXDJDQioUJvc=
-----END CERTIFICATE-----
