Certificate:
    Data:
        Version: 3 (0x2)
        Serial Number: 1 (0x1)
    Signature Algorithm: sha256WithRSAEncryption
        Issuer: C=US, O=Honest Achmed's, CN=Honest Achmed's Test Root CA
        Validity
            Not Before: May 10 00:00:00 2017 GMT
            Not After : May 18 00:10:36 2018 GMT
        Subject: C=US, O=Honest Achmed's, CN=Honest Achmed's Test Root CA
        Subject Public Key Info:
            Public Key Algorithm: rsaEncryption
                Public-Key: (4096 bit)
                Modulus:
                    00:f3:3d:fb:f5:c0:ca:03:29:95:94:0c:15:f6:de:
                    ff:ca:ad:1b:f9:cb:49:10:db:4b:98:b5:28:37:ea:
                    bc:14:72:ad:de:5b:2c:c5:ce:a4:b3:04:50:45:fb:
                    aa:f0:81:62:ce:cf:1a:d9:0d:84:57:c6:7e:50:86:
                    ce:a5:13:6a:f6:7f:b2:e2:c7:5a:28:c1:f7:74:b4:
                    93:1d:ac:b0:d0:ca:4f:71:fb:6f:5b:ba:d5:83:4d:
                    8c:a9:d7:10:6c:8b:06:07:50:ae:e0:ca:3d:be:35:
                    af:9b:8f:98:2b:c3:a4:df:e6:99:24:92:47:b6:7b:
                    26:8a:d4:2c:88:97:55:64:c2:79:24:71:be:19:d3:
                    2b:52:bd:70:5b:10:99:8d:39:ee:ec:ed:08:2f:3c:
                    91:a4:ae:5b:9a:59:f2:59:82:c3:94:01:ef:6f:0f:
                    81:ce:0c:68:05:f5:3d:44:3f:11:ee:af:a6:da:cd:
                    eb:80:12:70:36:b5:af:d9:90:a1:fc:77:cc:7c:82:
                    5a:db:a8:48:46:b3:3a:fe:25:b0:72:1b:24:0d:89:
                    0a:26:65:97:04:7a:19:85:c0:d9:87:74:ea:97:b9:
                    06:53:43:ee:d8:60:46:22:2a:f3:fb:fa:d2:e7:00:
                    b9:29:7a:b8:4c:47:a8:fa:68:f4:45:07:1e:10:4c:
                    df:ac:c6:80:f6:96:81:ce:d8:07:ae:08:b0:6d:7f:
                    0d:a0:30:c1:cc:8c:4f:83:24:e6:ef:d1:07:79:a7:
                    33:73:07:91:9d:fc:63:3b:ad:b1:a3:b8:86:e7:a8:
                    e6:49:fd:c9:15:02:dc:e5:f6:ed:35:b5:e8:87:17:
                    c9:05:7c:1d:b4:ad:0a:e2:bd:9a:b2:8e:0d:26:12:
                    5f:7e:17:2b:01:40:fc:f3:82:db:91:15:12:91:b3:
                    29:46:2a:c6:5a:9d:91:f2:9c:90:b9:a4:1e:91:4c:
                    63:c3:8d:a6:ff:a1:47:42:2a:47:86:86:44:9e:03:
                    6f:3c:61:1c:d0:7d:9f:18:2b:48:0b:42:a4:ae:bb:
                    97:eb:42:b5:81:8e:8e:ab:72:03:45:38:a6:a6:dc:
                    ff:4c:33:ad:51:94:8a:4f:31:01:31:74:ed:40:12:
                    38:19:b5:48:7a:41:f9:0f:9f:10:e0:63:4d:35:43:
                    83:3d:27:8c:df:88:84:2c:3e:62:9f:41:42:9b:57:
                    70:bb:d7:f4:bf:95:c0:d2:59:bd:49:19:b7:ef:e7:
                    aa:c7:b0:e0:d9:50:5a:d1:42:9f:67:2c:3e:49:a3:
                    67:50:17:83:eb:d3:87:75:59:76:81:2e:73:a1:6f:
                    37:27:f4:b6:bb:80:83:7f:43:aa:4d:93:7f:a6:8f:
                    c2:43:07
                Exponent: 65537 (0x10001)
        X509v3 extensions:
            X509v3 Subject Key Identifier: 
                1C:05:A7:CA:E9:34:C6:82:6F:2C:6F:C6:C2:BF:9D:67:59:BC:5F:91
            X509v3 Authority Key Identifier: 
                keyid:1C:05:A7:CA:E9:34:C6:82:6F:2C:6F:C6:C2:BF:9D:67:59:BC:5F:91

            X509v3 Basic Constraints: critical
                CA:TRUE
            X509v3 Key Usage: critical
                Digital Signature, Certificate Sign, CRL Sign
    Signature Algorithm: sha256WithRSAEncryption
         e5:2a:b5:f1:f3:8c:60:55:50:10:c2:07:ba:3b:a7:cf:99:96:
         d8:ce:7d:2c:88:c1:b0:98:79:5a:8d:c4:bc:9d:13:46:d4:3d:
         49:4c:9b:11:9b:97:72:ff:f9:3f:ef:26:86:67:f0:c9:33:ef:
         5b:97:57:69:7f:47:51:77:c7:89:99:7a:33:97:31:fe:89:39:
         8c:79:5e:b7:80:ad:24:60:bb:8f:00:ef:7d:a9:a4:64:27:44:
         5a:42:cd:93:ea:d6:69:3a:2d:0f:44:28:79:d1:e0:11:39:12:
         5c:6d:5a:17:d8:47:ae:14:e7:d0:39:10:9d:53:f4:0e:48:08:
         34:45:c8:41:07:e4:98:17:f9:42:1a:1d:26:c3:08:44:96:a5:
         87:9b:35:27:9e:04:f5:97:cb:97:fb:10:62:cc:34:8f:56:fa:
         bd:5e:10:36:36:fc:46:da:01:94:e2:3c:b6:02:28:e1:1d:6d:
         27:9c:26:f8:9c:9c:fb:13:6f:70:44:c5:b5:9c:3d:db:1f:0b:
         f4:32:14:7b:98:b2:3e:bf:f8:ae:82:69:af:f3:66:d2:05:18:
         1d:71:13:98:7f:cd:27:ff:31:9b:54:99:d0:84:8f:f2:52:73:
         9d:02:49:16:73:b9:32:8f:60:db:4b:de:bf:a2:76:79:73:6d:
         a2:61:0a:9b:bf:a8:ee:39:a6:cd:b7:52:23:7d:74:8c:a1:60:
         ce:a6:97:db:22:2f:c3:34:80:ae:e1:7a:0c:66:4d:96:4f:64:
         10:c0:ff:aa:c3:0f:3e:dc:48:8e:70:4d:8d:35:eb:de:4c:51:
         13:c7:62:bf:d7:8e:95:49:a7:d3:cc:49:52:d4:1c:cb:c5:f0:
         8d:0b:f3:72:ae:bf:59:6a:c0:34:a5:4f:a1:68:9f:1c:2a:37:
         44:02:03:30:a8:55:dd:71:1b:1a:52:be:1b:4d:46:6f:3b:38:
         f9:7d:04:36:1d:6d:7b:57:f3:df:6c:47:49:26:f9:2b:67:ab:
         49:14:69:fe:52:83:19:26:5f:6f:aa:60:13:40:5b:a6:05:0d:
         74:19:af:e7:98:e2:de:a1:e2:7e:04:61:4f:7e:ab:36:05:d4:
         11:b8:b0:11:92:81:d1:43:ce:3e:21:3e:6b:be:5c:67:75:ae:
         79:40:e6:20:ab:88:16:32:d0:11:6b:12:a6:79:37:b8:69:78:
         22:c1:14:e8:b1:db:1d:ff:32:e7:d7:40:a0:9d:13:39:d4:8a:
         09:2c:4f:8c:2f:eb:59:c7:23:46:a9:ff:a5:b4:51:a7:75:3c:
         23:87:2f:f3:5d:9c:c2:df:05:30:f0:c6:d9:97:e4:e8:bc:18:
         c1:07:95:90:9e:05:9b:fd
-----BEGIN CERTIFICATE-----
MIIFejCCA2KgAwIBAgIBATANBgkqhkiG9w0BAQsFADBOMQswCQYDVQQGEwJVUzEY
MBYGA1UECgwPSG9uZXN0IEFjaG1lZCdzMSUwIwYDVQQDDBxIb25lc3QgQWNobWVk
J3MgVGVzdCBSb290IENBMB4XDTE3MDUxMDAwMDAwMFoXDTE4MDUxODAwMTAzNlow
TjELMAkGA1UEBhMCVVMxGDAWBgNVBAoMD0hvbmVzdCBBY2htZWQnczElMCMGA1UE
AwwcSG9uZXN0IEFjaG1lZCdzIFRlc3QgUm9vdCBDQTCCAiIwDQYJKoZIhvcNAQEB
BQADggIPADCCAgoCggIBAPM9+/XAygMplZQMFfbe/8qtG/nLSRDbS5i1KDfqvBRy
rd5bLMXOpLMEUEX7qvCBYs7PGtkNhFfGflCGzqUTavZ/suLHWijB93S0kx2ssNDK
T3H7b1u61YNNjKnXEGyLBgdQruDKPb41r5uPmCvDpN/mmSSSR7Z7JorULIiXVWTC
eSRxvhnTK1K9cFsQmY057uztCC88kaSuW5pZ8lmCw5QB728Pgc4MaAX1PUQ/Ee6v
ptrN64AScDa1r9mQofx3zHyCWtuoSEazOv4lsHIbJA2JCiZllwR6GYXA2Yd06pe5
BlND7thgRiIq8/v60ucAuSl6uExHqPpo9EUHHhBM36zGgPaWgc7YB64IsG1/DaAw
wcyMT4Mk5u/RB3mnM3MHkZ38YzutsaO4hueo5kn9yRUC3OX27TW16IcXyQV8HbSt
CuK9mrKODSYSX34XKwFA/POC25EVEpGzKUYqxlqdkfKckLmkHpFMY8ONpv+hR0Iq
R4aGRJ4DbzxhHNB9nxgrSAtCpK67l+tCtYGOjqtyA0U4pqbc/0wzrVGUik8xATF0
7UASOBm1SHpB+Q+fEOBjTTVDgz0njN+IhCw+Yp9BQptXcLvX9L+VwNJZvUkZt+/n
qsew4NlQWtFCn2csPkmjZ1AXg+vTh3VZdoEuc6FvNyf0truAg39Dqk2Tf6aPwkMH
AgMBAAGjYzBhMB0GA1UdDgQWBBQcBafK6TTGgm8sb8bCv51nWbxfkTAfBgNVHSME
GDAWgBQcBafK6TTGgm8sb8bCv51nWbxfkTAPBgNVHRMBAf8EBTADAQH/MA4GA1Ud
DwEB/wQEAwIBhjANBgkqhkiG9w0BAQsFAAOCAgEA5Sq18fOMYFVQEMIHujunz5mW
2M59LIjBsJh5Wo3EvJ0TRtQ9SUybEZuXcv/5P+8mhmfwyTPvW5dXaX9HUXfHiZl6
M5cx/ok5jHlet4CtJGC7jwDvfamkZCdEWkLNk+rWaTotD0QoedHgETkSXG1aF9hH
rhTn0DkQnVP0DkgINEXIQQfkmBf5QhodJsMIRJalh5s1J54E9ZfLl/sQYsw0j1b6
vV4QNjb8RtoBlOI8tgIo4R1tJ5wm+Jyc+xNvcETFtZw92x8L9DIUe5iyPr/4roJp
r/Nm0gUYHXETmH/NJ/8xm1SZ0ISP8lJznQJJFnO5Mo9g20vev6J2eXNtomEKm7+o
7jmmzbdSI310jKFgzqaX2yIvwzSAruF6DGZNlk9kEMD/qsMPPtxIjnBNjTXr3kxR
E8div9eOlUmn08xJUtQcy8XwjQvzcq6/WWrANKVPoWifHCo3RAIDMKhV3XEbGlK+
G01Gbzs4+X0ENh1te1fz32xHSSb5K2erSRRp/lKDGSZfb6pgE0BbpgUNdBmv55ji
3qHifgRhT36rNgXUEbiwEZKB0UPOPiE+a75cZ3WueUDmIKuIFjLQEWsSpnk3uGl4
IsEU6LHbHf8y59dAoJ0TOdSKCSxPjC/rWccjRqn/pbRRp3U8I4cv812cwt8FMPDG
2Zfk6LwYwQeVkJ4Fm/0=
-----END CERTIFICATE-----
